target datalayout = "e-m:e-p270:32:32-p271:32:32-p272:64:64-i64:64-i128:128-f80:128-n8:16:32:64-S128"
target triple = "x86_64-pc-linux-gnu"

%struct.print_field = type { i32, ptr, ptr, i16 }

@print_fields_parsable_print = dso_local global i32 0, align 4
@fields_delimiter = dso_local global ptr null, align 8
@.str = private unnamed_addr constant [3 x i8] c"%s\00", align 1
@.str.7 = private unnamed_addr constant [2 x i8] c" \00", align 1
@.str.8 = private unnamed_addr constant [2 x i8] c"|\00", align 1
@.str.9 = private unnamed_addr constant [5 x i8] c"%*s \00", align 1
@.str.20 = private unnamed_addr constant [3 x i8] c"%f\00", align 1
@.str.21 = private unnamed_addr constant [4 x i8] c"%f|\00", align 1
@.str.22 = private unnamed_addr constant [5 x i8] c"%f%s\00", align 1
@.str.23 = private unnamed_addr constant [4 x i8] c"%*f\00", align 1
@.str.24 = private unnamed_addr constant [6 x i8] c"%*.*e\00", align 1
@.str.25 = private unnamed_addr constant [7 x i8] c"%*.*e \00", align 1
@.str.26 = private unnamed_addr constant [8 x i8] c"%-*.*e \00", align 1
@.str.27 = private unnamed_addr constant [5 x i8] c"%*f \00", align 1
@.str.28 = private unnamed_addr constant [6 x i8] c"%-*f \00", align 1

; Function Attrs: nounwind uwtable
define dso_local void @print_fields_double(ptr noundef %0, ptr noundef %1, i32 noundef %2) #0 {
  %4 = alloca ptr, align 8
  %5 = alloca ptr, align 8
  %6 = alloca i32, align 4
  %7 = alloca i32, align 4
  %8 = alloca double, align 8
  %9 = alloca i32, align 4
  %10 = alloca i32, align 4
  %11 = alloca i32, align 4
  %12 = alloca ptr, align 8
  store ptr %0, ptr %4, align 8
  store ptr %1, ptr %5, align 8
  store i32 %2, ptr %6, align 4
  call void @llvm.lifetime.start.p0(i64 4, ptr %7) #10
  %13 = load ptr, ptr %4, align 8
  %14 = getelementptr inbounds nuw %struct.print_field, ptr %13, i32 0, i32 0
  %15 = load i32, ptr %14, align 8
  %16 = call i32 @llvm.abs.i32(i32 %15, i1 true)
  store i32 %16, ptr %7, align 4
  call void @llvm.lifetime.start.p0(i64 8, ptr %8) #10
  store double 0x43F0000000000000, ptr %8, align 8
  %17 = load ptr, ptr %5, align 8
  %18 = icmp ne ptr %17, null
  br i1 %18, label %19, label %22

19:                                               ; preds = %3
  %20 = load ptr, ptr %5, align 8
  %21 = load double, ptr %20, align 8
  store double %21, ptr %8, align 8
  br label %22

22:                                               ; preds = %19, %3
  %23 = load double, ptr %8, align 8
  %24 = fcmp oeq double %23, 0x43F0000000000000
  br i1 %24, label %34, label %25

25:                                               ; preds = %22
  %26 = load double, ptr %8, align 8
  %27 = fcmp oeq double %26, 0x43F0000000000000
  br i1 %27, label %34, label %28

28:                                               ; preds = %25
  %29 = load double, ptr %8, align 8
  %30 = fcmp oeq double %29, 0x41EFFFFFFFC00000
  br i1 %30, label %34, label %31

31:                                               ; preds = %28
  %32 = load double, ptr %8, align 8
  %33 = fcmp oeq double %32, 0x41EFFFFFFFE00000
  br i1 %33, label %34, label %66

34:                                               ; preds = %31, %28, %25, %22
  %35 = load i32, ptr @print_fields_parsable_print, align 4
  %36 = icmp eq i32 %35, 2
  br i1 %36, label %37, label %41

37:                                               ; preds = %34
  %38 = load i32, ptr %6, align 4
  %39 = icmp ne i32 %38, 0
  br i1 %39, label %40, label %41

40:                                               ; preds = %37
  br label %65

41:                                               ; preds = %37, %34
  %42 = load i32, ptr @print_fields_parsable_print, align 4
  %43 = icmp ne i32 %42, 0
  br i1 %43, label %44, label %49

44:                                               ; preds = %41
  %45 = load ptr, ptr @fields_delimiter, align 8
  %46 = icmp ne ptr %45, null
  br i1 %46, label %49, label %47

47:                                               ; preds = %44
  %48 = call i32 (ptr, ...) @printf(ptr noundef @.str.8)
  br label %64

49:                                               ; preds = %44, %41
  %50 = load i32, ptr @print_fields_parsable_print, align 4
  %51 = icmp ne i32 %50, 0
  br i1 %51, label %52, label %58

52:                                               ; preds = %49
  %53 = load ptr, ptr @fields_delimiter, align 8
  %54 = icmp ne ptr %53, null
  br i1 %54, label %55, label %58

55:                                               ; preds = %52
  %56 = load ptr, ptr @fields_delimiter, align 8
  %57 = call i32 (ptr, ...) @printf(ptr noundef @.str, ptr noundef %56)
  br label %63

58:                                               ; preds = %52, %49
  %59 = load ptr, ptr %4, align 8
  %60 = getelementptr inbounds nuw %struct.print_field, ptr %59, i32 0, i32 0
  %61 = load i32, ptr %60, align 8
  %62 = call i32 (ptr, ...) @printf(ptr noundef @.str.9, i32 noundef %61, ptr noundef @.str.7)
  br label %63

63:                                               ; preds = %58, %55
  br label %64

64:                                               ; preds = %63, %47
  br label %65

65:                                               ; preds = %64, %40
  br label %159

66:                                               ; preds = %31
  %67 = load i32, ptr @print_fields_parsable_print, align 4
  %68 = icmp eq i32 %67, 2
  br i1 %68, label %69, label %75

69:                                               ; preds = %66
  %70 = load i32, ptr %6, align 4
  %71 = icmp ne i32 %70, 0
  br i1 %71, label %72, label %75

72:                                               ; preds = %69
  %73 = load double, ptr %8, align 8
  %74 = call i32 (ptr, ...) @printf(ptr noundef @.str.20, double noundef %73)
  br label %158

75:                                               ; preds = %69, %66
  %76 = load i32, ptr @print_fields_parsable_print, align 4
  %77 = icmp ne i32 %76, 0
  br i1 %77, label %78, label %84

78:                                               ; preds = %75
  %79 = load ptr, ptr @fields_delimiter, align 8
  %80 = icmp ne ptr %79, null
  br i1 %80, label %84, label %81

81:                                               ; preds = %78
  %82 = load double, ptr %8, align 8
  %83 = call i32 (ptr, ...) @printf(ptr noundef @.str.21, double noundef %82)
  br label %157

84:                                               ; preds = %78, %75
  %85 = load i32, ptr @print_fields_parsable_print, align 4
  %86 = icmp ne i32 %85, 0
  br i1 %86, label %87, label %94

87:                                               ; preds = %84
  %88 = load ptr, ptr @fields_delimiter, align 8
  %89 = icmp ne ptr %88, null
  br i1 %89, label %90, label %94

90:                                               ; preds = %87
  %91 = load double, ptr %8, align 8
  %92 = load ptr, ptr @fields_delimiter, align 8
  %93 = call i32 (ptr, ...) @printf(ptr noundef @.str.22, double noundef %91, ptr noundef %92)
  br label %156

94:                                               ; preds = %87, %84
  call void @llvm.lifetime.start.p0(i64 4, ptr %9) #10
  call void @llvm.lifetime.start.p0(i64 4, ptr %10) #10
  %95 = load i32, ptr %7, align 4
  store i32 %95, ptr %10, align 4
  call void @llvm.lifetime.start.p0(i64 4, ptr %11) #10
  call void @llvm.lifetime.start.p0(i64 8, ptr %12) #10
  store ptr null, ptr %12, align 8
  %96 = load i32, ptr %7, align 4
  %97 = load double, ptr %8, align 8
  call void (ptr, ptr, ...) @_xstrfmtcat(ptr noundef %12, ptr noundef @.str.23, i32 noundef %96, double noundef %97)
  %98 = load ptr, ptr %12, align 8
  %99 = call i64 @strlen(ptr noundef %98) #11
  %100 = trunc i64 %99 to i32
  store i32 %100, ptr %9, align 4
  %101 = load i32, ptr %9, align 4
  %102 = load i32, ptr %10, align 4
  %103 = icmp sgt i32 %101, %102
  br i1 %103, label %104, label %140

104:                                              ; preds = %94
  %105 = load i32, ptr %10, align 4
  %106 = load i32, ptr %10, align 4
  %107 = load double, ptr %8, align 8
  call void (ptr, ptr, ...) @_xstrfmtcat(ptr noundef %12, ptr noundef @.str.24, i32 noundef %105, i32 noundef %106, double noundef %107)
  %108 = load ptr, ptr %12, align 8
  %109 = call i64 @strlen(ptr noundef %108) #11
  %110 = load i32, ptr %9, align 4
  %111 = sext i32 %110 to i64
  %112 = sub i64 %109, %111
  %113 = trunc i64 %112 to i32
  store i32 %113, ptr %11, align 4
  %114 = load i32, ptr %11, align 4
  %115 = load i32, ptr %10, align 4
  %116 = icmp sgt i32 %114, %115
  br i1 %116, label %117, label %123

117:                                              ; preds = %104
  %118 = load i32, ptr %11, align 4
  %119 = load i32, ptr %10, align 4
  %120 = sub nsw i32 %118, %119
  %121 = load i32, ptr %10, align 4
  %122 = sub nsw i32 %121, %120
  store i32 %122, ptr %10, align 4
  br label %123

123:                                              ; preds = %117, %104
  %124 = load ptr, ptr %4, align 8
  %125 = getelementptr inbounds nuw %struct.print_field, ptr %124, i32 0, i32 0
  %126 = load i32, ptr %125, align 8
  %127 = load i32, ptr %7, align 4
  %128 = icmp eq i32 %126, %127
  br i1 %128, label %129, label %134

129:                                              ; preds = %123
  %130 = load i32, ptr %10, align 4
  %131 = load i32, ptr %10, align 4
  %132 = load double, ptr %8, align 8
  %133 = call i32 (ptr, ...) @printf(ptr noundef @.str.25, i32 noundef %130, i32 noundef %131, double noundef %132)
  br label %139

134:                                              ; preds = %123
  %135 = load i32, ptr %10, align 4
  %136 = load i32, ptr %10, align 4
  %137 = load double, ptr %8, align 8
  %138 = call i32 (ptr, ...) @printf(ptr noundef @.str.26, i32 noundef %135, i32 noundef %136, double noundef %137)
  br label %139

139:                                              ; preds = %134, %129
  br label %155

140:                                              ; preds = %94
  %141 = load ptr, ptr %4, align 8
  %142 = getelementptr inbounds nuw %struct.print_field, ptr %141, i32 0, i32 0
  %143 = load i32, ptr %142, align 8
  %144 = load i32, ptr %7, align 4
  %145 = icmp eq i32 %143, %144
  br i1 %145, label %146, label %150

146:                                              ; preds = %140
  %147 = load i32, ptr %10, align 4
  %148 = load double, ptr %8, align 8
  %149 = call i32 (ptr, ...) @printf(ptr noundef @.str.27, i32 noundef %147, double noundef %148)
  br label %154

150:                                              ; preds = %140
  %151 = load i32, ptr %10, align 4
  %152 = load double, ptr %8, align 8
  %153 = call i32 (ptr, ...) @printf(ptr noundef @.str.28, i32 noundef %151, double noundef %152)
  br label %154

154:                                              ; preds = %150, %146
  br label %155

155:                                              ; preds = %154, %139
  call void @slurm_xfree(ptr noundef %12)
  call void @llvm.lifetime.end.p0(i64 8, ptr %12) #10
  call void @llvm.lifetime.end.p0(i64 4, ptr %11) #10
  call void @llvm.lifetime.end.p0(i64 4, ptr %10) #10
  call void @llvm.lifetime.end.p0(i64 4, ptr %9) #10
  br label %156

156:                                              ; preds = %155, %90
  br label %157

157:                                              ; preds = %156, %81
  br label %158

158:                                              ; preds = %157, %72
  br label %159

159:                                              ; preds = %158, %65
  call void @llvm.lifetime.end.p0(i64 8, ptr %8) #10
  call void @llvm.lifetime.end.p0(i64 4, ptr %7) #10
  ret void
}