; Function Attrs: nounwind uwtable
define dso_local void @print_fields_double(ptr noundef readonly captures(none) %0, ptr noundef readonly captures(address_is_null) %1, i32 noundef %2) local_unnamed_addr #0 {
  %4 = alloca ptr, align 8
  %5 = load i32, ptr %0, align 8
  %6 = tail call i32 @llvm.abs.i32(i32 %5, i1 true)
  %.not = icmp eq ptr %1, null
  br i1 %.not, label %.thread, label %7

7:                                                ; preds = %3
  %8 = load double, ptr %1, align 8
  %9 = fcmp oeq double %8, 0x43F0000000000000
  %10 = fcmp oeq double %8, 0x41EFFFFFFFC00000
  %or.cond3 = or i1 %9, %10
  %11 = fcmp oeq double %8, 0x41EFFFFFFFE00000
  %or.cond5 = or i1 %11, %or.cond3
  br i1 %or.cond5, label %.thread, label %28

.thread:                                          ; preds = %3, %7
  %12 = load i32, ptr @print_fields_parsable_print, align 4
  %13 = icmp eq i32 %12, 2
  %14 = icmp ne i32 %2, 0
  %or.cond7 = and i1 %14, %13
  br i1 %or.cond7, label %70, label %15

15:                                               ; preds = %.thread
  %16 = icmp eq i32 %12, 0
  %17 = load ptr, ptr @fields_delimiter, align 8
  %18 = icmp ne ptr %17, null
  %or.cond9 = select i1 %16, i1 true, i1 %18
  br i1 %or.cond9, label %22, label %19

19:                                               ; preds = %15
  %20 = load ptr, ptr @stdout, align 8
  %21 = tail call noundef i32 @putc(i32 noundef 124, ptr noundef %20)
  br label %70

22:                                               ; preds = %15
  %23 = icmp ne i32 %12, 0
  %or.cond11 = select i1 %23, i1 %18, i1 false
  br i1 %or.cond11, label %24, label %26

24:                                               ; preds = %22
  %25 = tail call i32 (ptr, ...) @printf(ptr noundef nonnull dereferenceable(1) @.str, ptr noundef nonnull %17)
  br label %70

26:                                               ; preds = %22
  %27 = tail call i32 (ptr, ...) @printf(ptr noundef nonnull dereferenceable(1) @.str.9, i32 noundef %5, ptr noundef nonnull @.str.7)
  br label %70

28:                                               ; preds = %7
  %29 = load i32, ptr @print_fields_parsable_print, align 4
  %30 = icmp eq i32 %29, 2
  %31 = icmp ne i32 %2, 0
  %or.cond13 = and i1 %31, %30
  br i1 %or.cond13, label %32, label %34

32:                                               ; preds = %28
  %33 = tail call i32 (ptr, ...) @printf(ptr noundef nonnull dereferenceable(1) @.str.20, double noundef %8)
  br label %70

34:                                               ; preds = %28
  %35 = icmp eq i32 %29, 0
  %36 = load ptr, ptr @fields_delimiter, align 8
  %37 = icmp ne ptr %36, null
  %or.cond15 = select i1 %35, i1 true, i1 %37
  br i1 %or.cond15, label %40, label %38

38:                                               ; preds = %34
  %39 = tail call i32 (ptr, ...) @printf(ptr noundef nonnull dereferenceable(1) @.str.21, double noundef %8)
  br label %70

40:                                               ; preds = %34
  %41 = icmp ne i32 %29, 0
  %or.cond17 = select i1 %41, i1 %37, i1 false
  br i1 %or.cond17, label %42, label %44

42:                                               ; preds = %40
  %43 = tail call i32 (ptr, ...) @printf(ptr noundef nonnull dereferenceable(1) @.str.22, double noundef %8, ptr noundef nonnull %36)
  br label %70

44:                                               ; preds = %40
  call void @llvm.lifetime.start.p0(i64 8, ptr nonnull %4) #11
  store ptr null, ptr %4, align 8
  call void (ptr, ptr, ...) @_xstrfmtcat(ptr noundef nonnull %4, ptr noundef nonnull @.str.23, i32 noundef %6, double noundef %8) #11
  %45 = load ptr, ptr %4, align 8
  %46 = call i64 @strlen(ptr noundef nonnull dereferenceable(1) %45) #12
  %47 = trunc i64 %46 to i32
  %48 = icmp slt i32 %6, %47
  br i1 %48, label %49, label %62

49:                                               ; preds = %44
  call void (ptr, ptr, ...) @_xstrfmtcat(ptr noundef nonnull %4, ptr noundef nonnull @.str.24, i32 noundef %6, i32 noundef %6, double noundef %8) #11
  %50 = load ptr, ptr %4, align 8
  %51 = call i64 @strlen(ptr noundef nonnull dereferenceable(1) %50) #12
  %52 = sub i64 %51, %46
  %53 = trunc i64 %52 to i32
  %54 = icmp slt i32 %6, %53
  %.neg = sub i32 %6, %53
  %55 = select i1 %54, i32 %.neg, i32 0
  %.057 = add i32 %55, %6
  %56 = load i32, ptr %0, align 8
  %57 = icmp eq i32 %56, %6
  br i1 %57, label %58, label %60

58:                                               ; preds = %49
  %59 = call i32 (ptr, ...) @printf(ptr noundef nonnull dereferenceable(1) @.str.25, i32 noundef %.057, i32 noundef %.057, double noundef %8)
  br label %69

60:                                               ; preds = %49
  %61 = call i32 (ptr, ...) @printf(ptr noundef nonnull dereferenceable(1) @.str.26, i32 noundef %.057, i32 noundef %.057, double noundef %8)
  br label %69

62:                                               ; preds = %44
  %63 = load i32, ptr %0, align 8
  %64 = icmp eq i32 %63, %6
  br i1 %64, label %65, label %67

65:                                               ; preds = %62
  %66 = call i32 (ptr, ...) @printf(ptr noundef nonnull dereferenceable(1) @.str.27, i32 noundef %6, double noundef %8)
  br label %69

67:                                               ; preds = %62
  %68 = call i32 (ptr, ...) @printf(ptr noundef nonnull dereferenceable(1) @.str.28, i32 noundef %6, double noundef %8)
  br label %69

69:                                               ; preds = %65, %67, %58, %60
  call void @slurm_xfree(ptr noundef nonnull %4) #11
  call void @llvm.lifetime.end.p0(i64 8, ptr nonnull %4) #11
  br label %70

70:                                               ; preds = %32, %42, %69, %38, %.thread, %24, %26, %19
  ret void
}